target datalayout = "e-m:e-p270:32:32-p271:32:32-p272:64:64-i64:64-i128:128-f80:128-n8:16:32:64-S128"
target triple = "x86_64-pc-linux-gnu"

%struct.conn = type { ptr, i32, i8, i8, i8, i8, i8, i8, i8, i8, ptr, i32, i32, i32, %struct.event, i16, i16, ptr, ptr, i32, i32, ptr, ptr, ptr, i32, ptr, i32, i32, i32, i32, i32, i32, i32, %struct.sockaddr_in6, i32, i8, %struct.anon.8, %union.protocol_binary_request_header, i64, i64, i16, i32, i32, ptr, ptr, ptr, ptr, ptr, ptr }
%struct.event = type { %struct.event_callback, %union.anon.0, i32, ptr, %union.anon.2, i16, i16, %struct.timeval }
%struct.event_callback = type { %struct.anon, i16, i8, i8, %union.anon, ptr }
%struct.anon = type { ptr, ptr }
%union.anon = type { ptr }
%union.anon.0 = type { %struct.anon.1 }
%struct.anon.1 = type { ptr, ptr }
%union.anon.2 = type { %struct.anon.3 }
%struct.anon.3 = type { %struct.anon.4, %struct.timeval }
%struct.anon.4 = type { ptr, ptr }
%struct.timeval = type { i64, i64 }
%struct.sockaddr_in6 = type { i16, i16, i32, %struct.in6_addr, i32 }
%struct.in6_addr = type { %union.anon.7 }
%union.anon.7 = type { [4 x i32] }
%struct.anon.8 = type { ptr, i64, i64 }
%union.protocol_binary_request_header = type { %struct.anon.9 }
%struct.anon.9 = type { i8, i8, i16, i8, i8, i16, i32, i32, i64 }
%struct.LIBEVENT_THREAD = type { i64, ptr, %struct.thread_notify, %struct.thread_notify, %union.pthread_mutex_t, %struct.iop_head_s, i32, i32, i32, %struct.thread_stats, [3 x %struct.io_queue_s], ptr, ptr, ptr, ptr, ptr, ptr, ptr, i32 }
%struct.thread_notify = type { %struct.event, i32 }
%union.pthread_mutex_t = type { %struct.__pthread_mutex_s }
%struct.__pthread_mutex_s = type { i32, i32, i32, i32, i32, i16, i16, %struct.__pthread_internal_list }
%struct.__pthread_internal_list = type { ptr, ptr }
%struct.iop_head_s = type { ptr, ptr }
%struct.thread_stats = type { %union.pthread_mutex_t, i64, i64, i64, i64, i64, i64, i64, i64, i64, i64, i64, i64, i64, i64, i64, i64, i64, i64, i64, i64, i64, i64, i64, i64, i64, i64, i64, i64, i64, i64, [64 x %struct.slab_stats], [256 x i64], i64, i64, i64 }
%struct.slab_stats = type { i64, i64, i64, i64, i64, i64, i64, i64 }
%struct.io_queue_s = type { ptr, %struct.iop_head_s, ptr, i32 }
%struct._stritem = type { ptr, ptr, ptr, i32, i32, i32, i16, i16, i8, i8, [0 x %union.anon.10] }
%union.anon.10 = type { i64 }
%struct.token_s = type { ptr, i64 }

@.str.4 = private unnamed_addr constant [10 x i8] c"NOT_FOUND\00", align 1
@.str.51 = private unnamed_addr constant [37 x i8] c"CLIENT_ERROR bad command line format\00", align 1
@.str.77 = private unnamed_addr constant [38 x i8] c"CLIENT_ERROR invalid exptime argument\00", align 1
@.str.85 = private unnamed_addr constant [8 x i8] c"noreply\00", align 1
@.str.130 = private unnamed_addr constant [8 x i8] c"TOUCHED\00", align 1

; Function Attrs: inlinehint nounwind uwtable
define internal zeroext i1 @set_noreply_maybe(ptr noundef %0, ptr noundef %1, i64 noundef %2) #5 {
  %4 = alloca ptr, align 8
  %5 = alloca ptr, align 8
  %6 = alloca i64, align 8
  %7 = alloca i32, align 4
  store ptr %0, ptr %4, align 8, !tbaa !4
  store ptr %1, ptr %5, align 8, !tbaa !77
  store i64 %2, ptr %6, align 8, !tbaa !44
  call void @llvm.lifetime.start.p0(i64 4, ptr %7) #8
  %8 = load i64, ptr %6, align 8, !tbaa !44
  %9 = sub i64 %8, 2
  %10 = trunc i64 %9 to i32
  store i32 %10, ptr %7, align 4, !tbaa !30
  %11 = load ptr, ptr %5, align 8, !tbaa !77
  %12 = load i32, ptr %7, align 4, !tbaa !30
  %13 = sext i32 %12 to i64
  %14 = getelementptr inbounds %struct.token_s, ptr %11, i64 %13
  %15 = getelementptr inbounds nuw %struct.token_s, ptr %14, i32 0, i32 0
  %16 = load ptr, ptr %15, align 8, !tbaa !70
  %17 = icmp ne ptr %16, null
  br i1 %17, label %18, label %30

18:                                               ; preds = %3
  %19 = load ptr, ptr %5, align 8, !tbaa !77
  %20 = load i32, ptr %7, align 4, !tbaa !30
  %21 = sext i32 %20 to i64
  %22 = getelementptr inbounds %struct.token_s, ptr %19, i64 %21
  %23 = getelementptr inbounds nuw %struct.token_s, ptr %22, i32 0, i32 0
  %24 = load ptr, ptr %23, align 8, !tbaa !70
  %25 = call i32 @strcmp(ptr noundef %24, ptr noundef @.str.85) #9
  %26 = icmp eq i32 %25, 0
  br i1 %26, label %27, label %30

27:                                               ; preds = %18
  %28 = load ptr, ptr %4, align 8, !tbaa !4
  %29 = getelementptr inbounds nuw %struct.conn, ptr %28, i32 0, i32 35
  store i8 1, ptr %29, align 4, !tbaa !43
  br label %30

30:                                               ; preds = %27, %18, %3
  %31 = load ptr, ptr %4, align 8, !tbaa !4
  %32 = getelementptr inbounds nuw %struct.conn, ptr %31, i32 0, i32 35
  %33 = load i8, ptr %32, align 4, !tbaa !43, !range !40, !noundef !41
  %34 = trunc i8 %33 to i1
  call void @llvm.lifetime.end.p0(i64 4, ptr %7) #8
  ret i1 %34
}

; Function Attrs: nounwind uwtable
define internal void @process_touch_command(ptr noundef %0, ptr noundef %1, i64 noundef %2) #0 {
  %4 = alloca ptr, align 8
  %5 = alloca ptr, align 8
  %6 = alloca i64, align 8
  %7 = alloca ptr, align 8
  %8 = alloca i64, align 8
  %9 = alloca i32, align 4
  %10 = alloca i32, align 4
  %11 = alloca ptr, align 8
  %12 = alloca i32, align 4
  store ptr %0, ptr %4, align 8, !tbaa !4
  store ptr %1, ptr %5, align 8, !tbaa !77
  store i64 %2, ptr %6, align 8, !tbaa !44
  call void @llvm.lifetime.start.p0(i64 8, ptr %7) #8
  call void @llvm.lifetime.start.p0(i64 8, ptr %8) #8
  call void @llvm.lifetime.start.p0(i64 4, ptr %9) #8
  store i32 0, ptr %9, align 4, !tbaa !30
  call void @llvm.lifetime.start.p0(i64 4, ptr %10) #8
  store i32 0, ptr %10, align 4, !tbaa !30
  call void @llvm.lifetime.start.p0(i64 8, ptr %11) #8
  %13 = load ptr, ptr %4, align 8, !tbaa !4
  %14 = load ptr, ptr %5, align 8, !tbaa !77
  %15 = load i64, ptr %6, align 8, !tbaa !44
  %16 = call zeroext i1 @set_noreply_maybe(ptr noundef %13, ptr noundef %14, i64 noundef %15)
  %17 = load ptr, ptr %5, align 8, !tbaa !77
  %18 = getelementptr inbounds %struct.token_s, ptr %17, i64 1
  %19 = getelementptr inbounds nuw %struct.token_s, ptr %18, i32 0, i32 1
  %20 = load i64, ptr %19, align 8, !tbaa !79
  %21 = icmp ugt i64 %20, 250
  br i1 %21, label %22, label %24

22:                                               ; preds = %3
  %23 = load ptr, ptr %4, align 8, !tbaa !4
  call void @out_string(ptr noundef %23, ptr noundef @.str.51)
  store i32 1, ptr %12, align 4
  br label %125

24:                                               ; preds = %3
  %25 = load ptr, ptr %5, align 8, !tbaa !77
  %26 = getelementptr inbounds %struct.token_s, ptr %25, i64 1
  %27 = getelementptr inbounds nuw %struct.token_s, ptr %26, i32 0, i32 0
  %28 = load ptr, ptr %27, align 8, !tbaa !70
  store ptr %28, ptr %7, align 8, !tbaa !62
  %29 = load ptr, ptr %5, align 8, !tbaa !77
  %30 = getelementptr inbounds %struct.token_s, ptr %29, i64 1
  %31 = getelementptr inbounds nuw %struct.token_s, ptr %30, i32 0, i32 1
  %32 = load i64, ptr %31, align 8, !tbaa !79
  store i64 %32, ptr %8, align 8, !tbaa !44
  %33 = load ptr, ptr %5, align 8, !tbaa !77
  %34 = getelementptr inbounds %struct.token_s, ptr %33, i64 2
  %35 = getelementptr inbounds nuw %struct.token_s, ptr %34, i32 0, i32 0
  %36 = load ptr, ptr %35, align 8, !tbaa !70
  %37 = call zeroext i1 @safe_strtol(ptr noundef %36, ptr noundef %9)
  br i1 %37, label %40, label %38

38:                                               ; preds = %24
  %39 = load ptr, ptr %4, align 8, !tbaa !4
  call void @out_string(ptr noundef %39, ptr noundef @.str.77)
  store i32 1, ptr %12, align 4
  br label %125

40:                                               ; preds = %24
  %41 = load i32, ptr %9, align 4, !tbaa !30
  %42 = icmp slt i32 %41, 0
  br i1 %42, label %43, label %44

43:                                               ; preds = %40
  br label %46

44:                                               ; preds = %40
  %45 = load i32, ptr %9, align 4, !tbaa !30
  br label %46

46:                                               ; preds = %44, %43
  %47 = phi i32 [ 2592001, %43 ], [ %45, %44 ]
  %48 = sext i32 %47 to i64
  %49 = call i32 @realtime(i64 noundef %48)
  store i32 %49, ptr %10, align 4, !tbaa !30
  %50 = load ptr, ptr %7, align 8, !tbaa !62
  %51 = load i64, ptr %8, align 8, !tbaa !44
  %52 = load i32, ptr %10, align 4, !tbaa !30
  %53 = load ptr, ptr %4, align 8, !tbaa !4
  %54 = getelementptr inbounds nuw %struct.conn, ptr %53, i32 0, i32 44
  %55 = load ptr, ptr %54, align 8, !tbaa !32
  %56 = call ptr @item_touch(ptr noundef %50, i64 noundef %51, i32 noundef %52, ptr noundef %55)
  store ptr %56, ptr %11, align 8, !tbaa !27
  %57 = load ptr, ptr %11, align 8, !tbaa !27
  %58 = icmp ne ptr %57, null
  br i1 %58, label %59, label %96

59:                                               ; preds = %46
  %60 = load ptr, ptr %4, align 8, !tbaa !4
  %61 = getelementptr inbounds nuw %struct.conn, ptr %60, i32 0, i32 44
  %62 = load ptr, ptr %61, align 8, !tbaa !32
  %63 = getelementptr inbounds nuw %struct.LIBEVENT_THREAD, ptr %62, i32 0, i32 9
  %64 = getelementptr inbounds nuw %struct.thread_stats, ptr %63, i32 0, i32 0
  %65 = call i32 @pthread_mutex_lock(ptr noundef %64) #8
  %66 = load ptr, ptr %4, align 8, !tbaa !4
  %67 = getelementptr inbounds nuw %struct.conn, ptr %66, i32 0, i32 44
  %68 = load ptr, ptr %67, align 8, !tbaa !32
  %69 = getelementptr inbounds nuw %struct.LIBEVENT_THREAD, ptr %68, i32 0, i32 9
  %70 = getelementptr inbounds nuw %struct.thread_stats, ptr %69, i32 0, i32 5
  %71 = load i64, ptr %70, align 8, !tbaa !98
  %72 = add i64 %71, 1
  store i64 %72, ptr %70, align 8, !tbaa !98
  %73 = load ptr, ptr %4, align 8, !tbaa !4
  %74 = getelementptr inbounds nuw %struct.conn, ptr %73, i32 0, i32 44
  %75 = load ptr, ptr %74, align 8, !tbaa !32
  %76 = getelementptr inbounds nuw %struct.LIBEVENT_THREAD, ptr %75, i32 0, i32 9
  %77 = getelementptr inbounds nuw %struct.thread_stats, ptr %76, i32 0, i32 31
  %78 = load ptr, ptr %11, align 8, !tbaa !27
  %79 = getelementptr inbounds nuw %struct._stritem, ptr %78, i32 0, i32 8
  %80 = load i8, ptr %79, align 8, !tbaa !33
  %81 = zext i8 %80 to i32
  %82 = and i32 %81, -193
  %83 = sext i32 %82 to i64
  %84 = getelementptr inbounds [64 x %struct.slab_stats], ptr %77, i64 0, i64 %83
  %85 = getelementptr inbounds nuw %struct.slab_stats, ptr %84, i32 0, i32 2
  %86 = load i64, ptr %85, align 8, !tbaa !99
  %87 = add i64 %86, 1
  store i64 %87, ptr %85, align 8, !tbaa !99
  %88 = load ptr, ptr %4, align 8, !tbaa !4
  %89 = getelementptr inbounds nuw %struct.conn, ptr %88, i32 0, i32 44
  %90 = load ptr, ptr %89, align 8, !tbaa !32
  %91 = getelementptr inbounds nuw %struct.LIBEVENT_THREAD, ptr %90, i32 0, i32 9
  %92 = getelementptr inbounds nuw %struct.thread_stats, ptr %91, i32 0, i32 0
  %93 = call i32 @pthread_mutex_unlock(ptr noundef %92) #8
  %94 = load ptr, ptr %4, align 8, !tbaa !4
  call void @out_string(ptr noundef %94, ptr noundef @.str.130)
  %95 = load ptr, ptr %11, align 8, !tbaa !27
  call void @item_remove(ptr noundef %95)
  br label %124

96:                                               ; preds = %46
  %97 = load ptr, ptr %4, align 8, !tbaa !4
  %98 = getelementptr inbounds nuw %struct.conn, ptr %97, i32 0, i32 44
  %99 = load ptr, ptr %98, align 8, !tbaa !32
  %100 = getelementptr inbounds nuw %struct.LIBEVENT_THREAD, ptr %99, i32 0, i32 9
  %101 = getelementptr inbounds nuw %struct.thread_stats, ptr %100, i32 0, i32 0
  %102 = call i32 @pthread_mutex_lock(ptr noundef %101) #8
  %103 = load ptr, ptr %4, align 8, !tbaa !4
  %104 = getelementptr inbounds nuw %struct.conn, ptr %103, i32 0, i32 44
  %105 = load ptr, ptr %104, align 8, !tbaa !32
  %106 = getelementptr inbounds nuw %struct.LIBEVENT_THREAD, ptr %105, i32 0, i32 9
  %107 = getelementptr inbounds nuw %struct.thread_stats, ptr %106, i32 0, i32 5
  %108 = load i64, ptr %107, align 8, !tbaa !98
  %109 = add i64 %108, 1
  store i64 %109, ptr %107, align 8, !tbaa !98
  %110 = load ptr, ptr %4, align 8, !tbaa !4
  %111 = getelementptr inbounds nuw %struct.conn, ptr %110, i32 0, i32 44
  %112 = load ptr, ptr %111, align 8, !tbaa !32
  %113 = getelementptr inbounds nuw %struct.LIBEVENT_THREAD, ptr %112, i32 0, i32 9
  %114 = getelementptr inbounds nuw %struct.thread_stats, ptr %113, i32 0, i32 6
  %115 = load i64, ptr %114, align 8, !tbaa !101
  %116 = add i64 %115, 1
  store i64 %116, ptr %114, align 8, !tbaa !101
  %117 = load ptr, ptr %4, align 8, !tbaa !4
  %118 = getelementptr inbounds nuw %struct.conn, ptr %117, i32 0, i32 44
  %119 = load ptr, ptr %118, align 8, !tbaa !32
  %120 = getelementptr inbounds nuw %struct.LIBEVENT_THREAD, ptr %119, i32 0, i32 9
  %121 = getelementptr inbounds nuw %struct.thread_stats, ptr %120, i32 0, i32 0
  %122 = call i32 @pthread_mutex_unlock(ptr noundef %121) #8
  %123 = load ptr, ptr %4, align 8, !tbaa !4
  call void @out_string(ptr noundef %123, ptr noundef @.str.4)
  br label %124

124:                                              ; preds = %96, %59
  store i32 0, ptr %12, align 4
  br label %125

125:                                              ; preds = %124, %38, %22
  call void @llvm.lifetime.end.p0(i64 8, ptr %11) #8
  call void @llvm.lifetime.end.p0(i64 4, ptr %10) #8
  call void @llvm.lifetime.end.p0(i64 4, ptr %9) #8
  call void @llvm.lifetime.end.p0(i64 8, ptr %8) #8
  call void @llvm.lifetime.end.p0(i64 8, ptr %7) #8
  %126 = load i32, ptr %12, align 4
  switch i32 %126, label %128 [
    i32 0, label %127
    i32 1, label %127
  ]

127:                                              ; preds = %125, %125
  ret void

128:                                              ; preds = %125
  unreachable
}