; Function Attrs: nounwind uwtable
define internal fastcc void @process_touch_command(ptr noundef %0, ptr noundef nonnull readonly captures(none) %1, i64 noundef range(i64 2, 0) %2) unnamed_addr #0 {
  %4 = alloca i32, align 4
  call void @llvm.lifetime.start.p0(i64 4, ptr nonnull %4) #13
  store i32 0, ptr %4, align 4, !tbaa !27
  %5 = shl i64 %2, 32
  %sext.i = add i64 %5, -8589934592
  %6 = ashr exact i64 %sext.i, 28
  %7 = getelementptr inbounds i8, ptr %1, i64 %6
  %8 = load ptr, ptr %7, align 8, !tbaa !66
  %.not.i = icmp eq ptr %8, null
  br i1 %.not.i, label %set_noreply_maybe.exit, label %9

9:                                                ; preds = %3
  %10 = tail call i32 @strcmp(ptr noundef nonnull dereferenceable(1) %8, ptr noundef nonnull dereferenceable(8) @.str.85) #14
  %11 = icmp eq i32 %10, 0
  br i1 %11, label %12, label %set_noreply_maybe.exit

12:                                               ; preds = %9
  %13 = getelementptr inbounds nuw i8, ptr %0, i64 308
  store i8 1, ptr %13, align 4, !tbaa !39
  br label %set_noreply_maybe.exit

set_noreply_maybe.exit:                           ; preds = %3, %9, %12
  %14 = getelementptr inbounds nuw i8, ptr %1, i64 24
  %15 = load i64, ptr %14, align 8, !tbaa !68
  %16 = icmp ugt i64 %15, 250
  br i1 %16, label %17, label %18

17:                                               ; preds = %set_noreply_maybe.exit
  tail call void @out_string(ptr noundef nonnull %0, ptr noundef nonnull @.str.51) #13
  br label %58

18:                                               ; preds = %set_noreply_maybe.exit
  %19 = getelementptr inbounds nuw i8, ptr %1, i64 16
  %20 = load ptr, ptr %19, align 8, !tbaa !66
  %21 = getelementptr inbounds nuw i8, ptr %1, i64 32
  %22 = load ptr, ptr %21, align 8, !tbaa !66
  %23 = call zeroext i1 @safe_strtol(ptr noundef %22, ptr noundef nonnull %4) #13
  br i1 %23, label %25, label %24

24:                                               ; preds = %18
  call void @out_string(ptr noundef nonnull %0, ptr noundef nonnull @.str.77) #13
  br label %58

25:                                               ; preds = %18
  %26 = load i32, ptr %4, align 4, !tbaa !27
  %27 = icmp slt i32 %26, 0
  %28 = select i1 %27, i32 2592001, i32 %26
  %29 = sext i32 %28 to i64
  %30 = call i32 @realtime(i64 noundef %29) #13
  %31 = getelementptr inbounds nuw i8, ptr %0, i64 400
  %32 = load ptr, ptr %31, align 8, !tbaa !28
  %33 = call ptr @item_touch(ptr noundef %20, i64 noundef %15, i32 noundef %30, ptr noundef %32) #13
  %.not = icmp eq ptr %33, null
  %34 = load ptr, ptr %31, align 8, !tbaa !28
  %35 = getelementptr inbounds nuw i8, ptr %34, i64 360
  %36 = call i32 @pthread_mutex_lock(ptr noundef nonnull %35) #13
  %37 = load ptr, ptr %31, align 8, !tbaa !28
  %38 = getelementptr inbounds nuw i8, ptr %37, i64 432
  %39 = load i64, ptr %38, align 8, !tbaa !94
  %40 = add i64 %39, 1
  store i64 %40, ptr %38, align 8, !tbaa !94
  br i1 %.not, label %52, label %41

41:                                               ; preds = %25
  %42 = getelementptr inbounds nuw i8, ptr %33, i64 40
  %43 = load i8, ptr %42, align 8, !tbaa !29
  %44 = and i8 %43, 63
  %45 = zext nneg i8 %44 to i64
  %.idx = shl nuw nsw i64 %45, 6
  %46 = getelementptr i8, ptr %37, i64 656
  %47 = getelementptr i8, ptr %46, i64 %.idx
  %48 = load i64, ptr %47, align 8, !tbaa !95
  %49 = add i64 %48, 1
  store i64 %49, ptr %47, align 8, !tbaa !95
  %50 = getelementptr inbounds nuw i8, ptr %37, i64 360
  %51 = call i32 @pthread_mutex_unlock(ptr noundef nonnull %50) #13
  call void @out_string(ptr noundef nonnull %0, ptr noundef nonnull @.str.130) #13
  call void @item_remove(ptr noundef nonnull %33) #13
  br label %58

52:                                               ; preds = %25
  %53 = getelementptr inbounds nuw i8, ptr %37, i64 440
  %54 = load i64, ptr %53, align 8, !tbaa !133
  %55 = add i64 %54, 1
  store i64 %55, ptr %53, align 8, !tbaa !133
  %56 = getelementptr inbounds nuw i8, ptr %37, i64 360
  %57 = call i32 @pthread_mutex_unlock(ptr noundef nonnull %56) #13
  call void @out_string(ptr noundef nonnull %0, ptr noundef nonnull @.str.4) #13
  br label %58

58:                                               ; preds = %41, %52, %24, %17
  call void @llvm.lifetime.end.p0(i64 4, ptr nonnull %4) #13
  ret void
}